(lp0
S'poi'
p1
aS'salary'
p2
aS'bonus'
p3
aS'total_payments'
p4
aS'loan_advances'
p5
aS'deferred_income'
p6
aS'total_stock_value'
p7
aS'expenses'
p8
aS'exercised_stock_options'
p9
aS'other'
p10
aS'long_term_incentive'
p11
aS'restricted_stock'
p12
aS'ratio_bonus_salary'
p13
aS'ratio_to_poi'
p14
aS'ratio_from_poi'
p15
aS'ratio_poi_message'
p16
a.